target datalayout = "e-m:e-p270:32:32-p271:32:32-p272:64:64-i64:64-i128:128-f80:128-n8:16:32:64-S128"
target triple = "x86_64-pc-linux-gnu"

%"class.Luau::AstNode.base" = type <{ ptr, i32, %"struct.Luau::Location" }>
%"struct.Luau::Location" = type { %"struct.Luau::Position", %"struct.Luau::Position" }
%"struct.Luau::Position" = type { i32, i32 }
%"class.Luau::AstExpr.base" = type { %"class.Luau::AstNode.base" }
%"class.Luau::AstExprIfElse" = type { %"class.Luau::AstExpr.base", ptr, i8, ptr, i8, ptr }

; Function Attrs: mustprogress uwtable
define dso_local void @_ZN4Luau12TypeChecker25visitEPNS_13AstExprIfElseE(ptr noundef nonnull align 8 dereferenceable(784) %0, ptr noundef %1) #7 align 2 {
  %3 = alloca ptr, align 8
  %4 = alloca ptr, align 8
  store ptr %0, ptr %3, align 8, !tbaa !131
  store ptr %1, ptr %4, align 8, !tbaa !794
  %5 = load ptr, ptr %3, align 8
  %6 = load ptr, ptr %4, align 8, !tbaa !794
  %7 = getelementptr inbounds nuw %"class.Luau::AstExprIfElse", ptr %6, i32 0, i32 1
  %8 = load ptr, ptr %7, align 8, !tbaa !1095
  call void @_ZN4Luau12TypeChecker25visitEPNS_7AstExprENS_12ValueContextE(ptr noundef nonnull align 8 dereferenceable(784) %5, ptr noundef %8, i32 noundef 1)
  %9 = load ptr, ptr %4, align 8, !tbaa !794
  %10 = getelementptr inbounds nuw %"class.Luau::AstExprIfElse", ptr %9, i32 0, i32 3
  %11 = load ptr, ptr %10, align 8, !tbaa !1097
  call void @_ZN4Luau12TypeChecker25visitEPNS_7AstExprENS_12ValueContextE(ptr noundef nonnull align 8 dereferenceable(784) %5, ptr noundef %11, i32 noundef 1)
  %12 = load ptr, ptr %4, align 8, !tbaa !794
  %13 = getelementptr inbounds nuw %"class.Luau::AstExprIfElse", ptr %12, i32 0, i32 5
  %14 = load ptr, ptr %13, align 8, !tbaa !1098
  call void @_ZN4Luau12TypeChecker25visitEPNS_7AstExprENS_12ValueContextE(ptr noundef nonnull align 8 dereferenceable(784) %5, ptr noundef %14, i32 noundef 1)
  ret void
}